target datalayout = "e-m:e-p270:32:32-p271:32:32-p272:64:64-i64:64-i128:128-f80:128-n8:16:32:64-S128"
target triple = "x86_64-pc-linux-gnu"

; Function Attrs: nounwind uwtable
define internal i32 @ColorTransformDelta(i8 noundef signext %0, i8 noundef signext %1) #0 {
  %3 = alloca i8, align 1
  %4 = alloca i8, align 1
  store i8 %0, ptr %3, align 1
  store i8 %1, ptr %4, align 1
  %5 = load i8, ptr %3, align 1
  %6 = sext i8 %5 to i32
  %7 = load i8, ptr %4, align 1
  %8 = sext i8 %7 to i32
  %9 = mul nsw i32 %6, %8
  %10 = ashr i32 %9, 5
  ret i32 %10
}

; Function Attrs: nounwind uwtable
define internal signext i8 @U32ToS8(i32 noundef %0) #0 {
  %2 = alloca i32, align 4
  store i32 %0, ptr %2, align 4
  %3 = load i32, ptr %2, align 4
  %4 = and i32 %3, 255
  %5 = trunc i32 %4 to i8
  ret i8 %5
}

; Function Attrs: nounwind uwtable
define internal zeroext i8 @TransformColorBlue(i8 noundef zeroext %0, i8 noundef zeroext %1, i32 noundef %2) #0 {
  %4 = alloca i8, align 1
  %5 = alloca i8, align 1
  %6 = alloca i32, align 4
  %7 = alloca i8, align 1
  %8 = alloca i8, align 1
  %9 = alloca i32, align 4
  store i8 %0, ptr %4, align 1
  store i8 %1, ptr %5, align 1
  store i32 %2, ptr %6, align 4
  %10 = load i32, ptr %6, align 4
  %11 = lshr i32 %10, 8
  %12 = call signext i8 @U32ToS8(i32 noundef %11)
  store i8 %12, ptr %7, align 1
  %13 = load i32, ptr %6, align 4
  %14 = lshr i32 %13, 16
  %15 = call signext i8 @U32ToS8(i32 noundef %14)
  store i8 %15, ptr %8, align 1
  %16 = load i32, ptr %6, align 4
  %17 = and i32 %16, 255
  store i32 %17, ptr %9, align 4
  %18 = load i8, ptr %4, align 1
  %19 = load i8, ptr %7, align 1
  %20 = call i32 @ColorTransformDelta(i8 noundef signext %18, i8 noundef signext %19)
  %21 = load i32, ptr %9, align 4
  %22 = sub nsw i32 %21, %20
  store i32 %22, ptr %9, align 4
  %23 = load i8, ptr %5, align 1
  %24 = load i8, ptr %8, align 1
  %25 = call i32 @ColorTransformDelta(i8 noundef signext %23, i8 noundef signext %24)
  %26 = load i32, ptr %9, align 4
  %27 = sub nsw i32 %26, %25
  store i32 %27, ptr %9, align 4
  %28 = load i32, ptr %9, align 4
  %29 = and i32 %28, 255
  %30 = trunc i32 %29 to i8
  ret i8 %30
}

; Function Attrs: nounwind uwtable
define hidden void @VP8LCollectColorBlueTransforms_C(ptr noundef %0, i32 noundef %1, i32 noundef %2, i32 noundef %3, i32 noundef %4, i32 noundef %5, ptr noundef %6) #0 {
  %8 = alloca ptr, align 8
  %9 = alloca i32, align 4
  %10 = alloca i32, align 4
  %11 = alloca i32, align 4
  %12 = alloca i32, align 4
  %13 = alloca i32, align 4
  %14 = alloca ptr, align 8
  %15 = alloca i32, align 4
  store ptr %0, ptr %8, align 8
  store i32 %1, ptr %9, align 4
  store i32 %2, ptr %10, align 4
  store i32 %3, ptr %11, align 4
  store i32 %4, ptr %12, align 4
  store i32 %5, ptr %13, align 4
  store ptr %6, ptr %14, align 8
  br label %16

16:                                               ; preds = %44, %7
  %17 = load i32, ptr %11, align 4
  %18 = add nsw i32 %17, -1
  store i32 %18, ptr %11, align 4
  %19 = icmp sgt i32 %17, 0
  br i1 %19, label %20, label %49

20:                                               ; preds = %16
  store i32 0, ptr %15, align 4
  br label %21

21:                                               ; preds = %41, %20
  %22 = load i32, ptr %15, align 4
  %23 = load i32, ptr %10, align 4
  %24 = icmp slt i32 %22, %23
  br i1 %24, label %25, label %44

25:                                               ; preds = %21
  %26 = load ptr, ptr %14, align 8
  %27 = load i32, ptr %12, align 4
  %28 = trunc i32 %27 to i8
  %29 = load i32, ptr %13, align 4
  %30 = trunc i32 %29 to i8
  %31 = load ptr, ptr %8, align 8
  %32 = load i32, ptr %15, align 4
  %33 = sext i32 %32 to i64
  %34 = getelementptr inbounds i32, ptr %31, i64 %33
  %35 = load i32, ptr %34, align 4
  %36 = call zeroext i8 @TransformColorBlue(i8 noundef zeroext %28, i8 noundef zeroext %30, i32 noundef %35)
  %37 = zext i8 %36 to i64
  %38 = getelementptr inbounds i32, ptr %26, i64 %37
  %39 = load i32, ptr %38, align 4
  %40 = add i32 %39, 1
  store i32 %40, ptr %38, align 4
  br label %41

41:                                               ; preds = %25
  %42 = load i32, ptr %15, align 4
  %43 = add nsw i32 %42, 1
  store i32 %43, ptr %15, align 4
  br label %21, !llvm.loop !10

44:                                               ; preds = %21
  %45 = load i32, ptr %9, align 4
  %46 = load ptr, ptr %8, align 8
  %47 = sext i32 %45 to i64
  %48 = getelementptr inbounds i32, ptr %46, i64 %47
  store ptr %48, ptr %8, align 8
  br label %16, !llvm.loop !11

49:                                               ; preds = %16
  ret void
}