; Function Attrs: nofree norecurse nosync nounwind memory(read, argmem: readwrite, inaccessiblemem: none) uwtable
define hidden void @VP8LCollectColorBlueTransforms_C(ptr nocapture noundef readonly %0, i32 noundef %1, i32 noundef %2, i32 noundef %3, i32 noundef %4, i32 noundef %5, ptr nocapture noundef %6) #3 {
  %8 = icmp sgt i32 %3, 0
  br i1 %8, label %.preheader.lr.ph, label %._crit_edge17

.preheader.lr.ph:                                 ; preds = %7
  %9 = icmp sgt i32 %2, 0
  %sext = shl i32 %4, 24
  %10 = ashr exact i32 %sext, 24
  %sext12 = shl i32 %5, 24
  %11 = ashr exact i32 %sext12, 24
  %12 = sext i32 %1 to i64
  br i1 %9, label %.preheader.us.preheader, label %._crit_edge17

.preheader.us.preheader:                          ; preds = %.preheader.lr.ph
  %wide.trip.count = zext nneg i32 %2 to i64
  br label %.preheader.us

.preheader.us:                                    ; preds = %.preheader.us.preheader, %._crit_edge.us
  %.in = phi i32 [ %13, %._crit_edge.us ], [ %3, %.preheader.us.preheader ]
  %.01016.us = phi ptr [ %32, %._crit_edge.us ], [ %0, %.preheader.us.preheader ]
  %13 = add nsw i32 %.in, -1
  br label %14

14:                                               ; preds = %.preheader.us, %14
  %indvars.iv = phi i64 [ 0, %.preheader.us ], [ %indvars.iv.next, %14 ]
  %15 = getelementptr inbounds i32, ptr %.01016.us, i64 %indvars.iv
  %16 = load i32, ptr %15, align 4
  %17 = shl i32 %16, 16
  %18 = ashr i32 %17, 24
  %19 = mul nsw i32 %18, %10
  %20 = lshr i32 %19, 5
  %21 = shl i32 %16, 8
  %22 = ashr i32 %21, 24
  %23 = mul nsw i32 %22, %11
  %24 = lshr i32 %23, 5
  %25 = add nuw nsw i32 %20, %24
  %26 = sub i32 %16, %25
  %27 = and i32 %26, 255
  %28 = zext nneg i32 %27 to i64
  %29 = getelementptr inbounds i32, ptr %6, i64 %28
  %30 = load i32, ptr %29, align 4
  %31 = add i32 %30, 1
  store i32 %31, ptr %29, align 4
  %indvars.iv.next = add nuw nsw i64 %indvars.iv, 1
  %exitcond.not = icmp eq i64 %indvars.iv.next, %wide.trip.count
  br i1 %exitcond.not, label %._crit_edge.us, label %14, !llvm.loop !10

._crit_edge.us:                                   ; preds = %14
  %32 = getelementptr inbounds i32, ptr %.01016.us, i64 %12
  %33 = icmp sgt i32 %.in, 1
  br i1 %33, label %.preheader.us, label %._crit_edge17, !llvm.loop !11

._crit_edge17:                                    ; preds = %._crit_edge.us, %.preheader.lr.ph, %7
  ret void
}